; ModuleID = '7/1135.c'
source_filename = "7/1135.c"
target datalayout = "e-m:e-p270:32:32-p271:32:32-p272:64:64-i64:64-f80:128-n8:16:32:64-S128"
target triple = "x86_64-pc-linux-gnu"

@.str = private unnamed_addr constant [3 x i8] c"%s\00", align 1
@.str.1 = private unnamed_addr constant [3 x i8] c"%c\00", align 1
@.str.2 = private unnamed_addr constant [2 x i8] c"\0A\00", align 1

; Function Attrs: noinline nounwind uwtable
define dso_local i32 @main() #0 {
  %1 = alloca i32, align 4
  %2 = alloca i32, align 4
  %3 = alloca i32, align 4
  %4 = alloca i32, align 4
  %5 = alloca i32, align 4
  %6 = alloca i32, align 4
  %7 = alloca i32, align 4
  %8 = alloca i32, align 4
  %9 = alloca [256 x i8], align 16
  %10 = alloca [256 x i8], align 16
  %11 = alloca [513 x i8], align 16
  %12 = alloca [256 x [256 x i8]], align 16
  store i32 0, i32* %1, align 4
  %13 = bitcast [256 x i8]* %9 to i8*
  call void @llvm.memset.p0i8.i64(i8* align 16 %13, i8 0, i64 256, i1 false)
  %14 = bitcast [256 x i8]* %10 to i8*
  call void @llvm.memset.p0i8.i64(i8* align 16 %14, i8 0, i64 256, i1 false)
  %15 = bitcast [513 x i8]* %11 to i8*
  call void @llvm.memset.p0i8.i64(i8* align 16 %15, i8 0, i64 513, i1 false)
  %16 = bitcast [256 x [256 x i8]]* %12 to i8*
  call void @llvm.memset.p0i8.i64(i8* align 16 %16, i8 0, i64 65536, i1 false)
  %17 = getelementptr inbounds [256 x i8], [256 x i8]* %9, i64 0, i64 0
  %18 = call i32 (i8*, ...) @__isoc99_scanf(i8* getelementptr inbounds ([3 x i8], [3 x i8]* @.str, i64 0, i64 0), i8* %17)
  %19 = getelementptr inbounds [256 x i8], [256 x i8]* %10, i64 0, i64 0
  %20 = call i32 (i8*, ...) @__isoc99_scanf(i8* getelementptr inbounds ([3 x i8], [3 x i8]* @.str, i64 0, i64 0), i8* %19)
  %21 = getelementptr inbounds [513 x i8], [513 x i8]* %11, i64 0, i64 0
  %22 = call i32 (i8*, ...) @__isoc99_scanf(i8* getelementptr inbounds ([3 x i8], [3 x i8]* @.str, i64 0, i64 0), i8* %21)
  %23 = getelementptr inbounds [256 x i8], [256 x i8]* %9, i64 0, i64 0
  %24 = call i64 @strlen(i8* %23) #5
  %25 = trunc i64 %24 to i32
  store i32 %25, i32* %5, align 4
  %26 = getelementptr inbounds [256 x i8], [256 x i8]* %10, i64 0, i64 0
  %27 = call i64 @strlen(i8* %26) #5
  %28 = trunc i64 %27 to i32
  store i32 %28, i32* %6, align 4
  %29 = getelementptr inbounds [513 x i8], [513 x i8]* %11, i64 0, i64 0
  %30 = call i64 @strlen(i8* %29) #5
  %31 = trunc i64 %30 to i32
  store i32 %31, i32* %7, align 4
  %32 = load i32, i32* %5, align 4
  %33 = load i32, i32* %6, align 4
  %34 = icmp slt i32 %32, %33
  br i1 %34, label %35, label %36

35:                                               ; preds = %0
  br label %185

36:                                               ; preds = %0
  store i32 0, i32* %2, align 4
  br label %37

37:                                               ; preds = %66, %36
  %38 = load i32, i32* %2, align 4
  %39 = load i32, i32* %5, align 4
  %40 = load i32, i32* %6, align 4
  %41 = sub nsw i32 %39, %40
  %42 = add nsw i32 %41, 1
  %43 = icmp slt i32 %38, %42
  br i1 %43, label %44, label %69

44:                                               ; preds = %37
  store i32 0, i32* %3, align 4
  br label %45

45:                                               ; preds = %62, %44
  %46 = load i32, i32* %3, align 4
  %47 = load i32, i32* %6, align 4
  %48 = icmp slt i32 %46, %47
  br i1 %48, label %49, label %65

49:                                               ; preds = %45
  %50 = load i32, i32* %2, align 4
  %51 = load i32, i32* %3, align 4
  %52 = add nsw i32 %50, %51
  %53 = sext i32 %52 to i64
  %54 = getelementptr inbounds [256 x i8], [256 x i8]* %9, i64 0, i64 %53
  %55 = load i8, i8* %54, align 1
  %56 = load i32, i32* %2, align 4
  %57 = sext i32 %56 to i64
  %58 = getelementptr inbounds [256 x [256 x i8]], [256 x [256 x i8]]* %12, i64 0, i64 %57
  %59 = load i32, i32* %3, align 4
  %60 = sext i32 %59 to i64
  %61 = getelementptr inbounds [256 x i8], [256 x i8]* %58, i64 0, i64 %60
  store i8 %55, i8* %61, align 1
  br label %62

62:                                               ; preds = %49
  %63 = load i32, i32* %3, align 4
  %64 = add nsw i32 %63, 1
  store i32 %64, i32* %3, align 4
  br label %45

65:                                               ; preds = %45
  br label %66

66:                                               ; preds = %65
  %67 = load i32, i32* %2, align 4
  %68 = add nsw i32 %67, 1
  store i32 %68, i32* %2, align 4
  br label %37

69:                                               ; preds = %37
  store i32 0, i32* %2, align 4
  br label %70

70:                                               ; preds = %88, %69
  %71 = load i32, i32* %2, align 4
  %72 = load i32, i32* %5, align 4
  %73 = load i32, i32* %6, align 4
  %74 = sub nsw i32 %72, %73
  %75 = add nsw i32 %74, 1
  %76 = icmp slt i32 %71, %75
  br i1 %76, label %77, label %91

77:                                               ; preds = %70
  %78 = load i32, i32* %2, align 4
  %79 = sext i32 %78 to i64
  %80 = getelementptr inbounds [256 x [256 x i8]], [256 x [256 x i8]]* %12, i64 0, i64 %79
  %81 = getelementptr inbounds [256 x i8], [256 x i8]* %80, i64 0, i64 0
  %82 = getelementptr inbounds [256 x i8], [256 x i8]* %10, i64 0, i64 0
  %83 = call i32 @strcmp(i8* %81, i8* %82) #5
  %84 = icmp eq i32 %83, 0
  br i1 %84, label %85, label %87

85:                                               ; preds = %77
  %86 = load i32, i32* %2, align 4
  store i32 %86, i32* %4, align 4
  br label %91

87:                                               ; preds = %77
  br label %88

88:                                               ; preds = %87
  %89 = load i32, i32* %2, align 4
  %90 = add nsw i32 %89, 1
  store i32 %90, i32* %2, align 4
  br label %70

91:                                               ; preds = %85, %70
  %92 = load i32, i32* %2, align 4
  %93 = load i32, i32* %5, align 4
  %94 = load i32, i32* %6, align 4
  %95 = sub nsw i32 %93, %94
  %96 = add nsw i32 %95, 1
  %97 = icmp eq i32 %92, %96
  br i1 %97, label %98, label %101

98:                                               ; preds = %91
  %99 = getelementptr inbounds [256 x i8], [256 x i8]* %9, i64 0, i64 0
  %100 = call i32 (i8*, ...) @printf(i8* getelementptr inbounds ([3 x i8], [3 x i8]* @.str, i64 0, i64 0), i8* %99)
  store i32 0, i32* %1, align 4
  br label %186

101:                                              ; preds = %91
  %102 = load i32, i32* %4, align 4
  %103 = sext i32 %102 to i64
  %104 = getelementptr inbounds [256 x [256 x i8]], [256 x [256 x i8]]* %12, i64 0, i64 %103
  %105 = getelementptr inbounds [256 x i8], [256 x i8]* %104, i64 0, i64 0
  %106 = getelementptr inbounds [513 x i8], [513 x i8]* %11, i64 0, i64 0
  %107 = call i8* @strcpy(i8* %105, i8* %106) #6
  %108 = load i32, i32* %4, align 4
  %109 = icmp ne i32 %108, 0
  br i1 %109, label %110, label %158

110:                                              ; preds = %101
  store i32 0, i32* %2, align 4
  br label %111

111:                                              ; preds = %122, %110
  %112 = load i32, i32* %2, align 4
  %113 = load i32, i32* %4, align 4
  %114 = icmp slt i32 %112, %113
  br i1 %114, label %115, label %125

115:                                              ; preds = %111
  %116 = load i32, i32* %2, align 4
  %117 = sext i32 %116 to i64
  %118 = getelementptr inbounds [256 x i8], [256 x i8]* %9, i64 0, i64 %117
  %119 = load i8, i8* %118, align 1
  %120 = sext i8 %119 to i32
  %121 = call i32 (i8*, ...) @printf(i8* getelementptr inbounds ([3 x i8], [3 x i8]* @.str.1, i64 0, i64 0), i32 %120)
  br label %122

122:                                              ; preds = %115
  %123 = load i32, i32* %2, align 4
  %124 = add nsw i32 %123, 1
  store i32 %124, i32* %2, align 4
  br label %111

125:                                              ; preds = %111
  %126 = load i32, i32* %4, align 4
  %127 = sext i32 %126 to i64
  %128 = getelementptr inbounds [256 x [256 x i8]], [256 x [256 x i8]]* %12, i64 0, i64 %127
  %129 = getelementptr inbounds [256 x i8], [256 x i8]* %128, i64 0, i64 0
  %130 = call i32 (i8*, ...) @printf(i8* getelementptr inbounds ([3 x i8], [3 x i8]* @.str, i64 0, i64 0), i8* %129)
  %131 = load i32, i32* %6, align 4
  %132 = load i32, i32* %7, align 4
  %133 = icmp sgt i32 %131, %132
  br i1 %133, label %134, label %136

134:                                              ; preds = %125
  %135 = load i32, i32* %6, align 4
  store i32 %135, i32* %8, align 4
  br label %138

136:                                              ; preds = %125
  %137 = load i32, i32* %7, align 4
  store i32 %137, i32* %8, align 4
  br label %138

138:                                              ; preds = %136, %134
  %139 = load i32, i32* %4, align 4
  %140 = load i32, i32* %8, align 4
  %141 = add nsw i32 %139, %140
  store i32 %141, i32* %2, align 4
  br label %142

142:                                              ; preds = %153, %138
  %143 = load i32, i32* %2, align 4
  %144 = load i32, i32* %5, align 4
  %145 = icmp slt i32 %143, %144
  br i1 %145, label %146, label %156

146:                                              ; preds = %142
  %147 = load i32, i32* %2, align 4
  %148 = sext i32 %147 to i64
  %149 = getelementptr inbounds [256 x i8], [256 x i8]* %9, i64 0, i64 %148
  %150 = load i8, i8* %149, align 1
  %151 = sext i8 %150 to i32
  %152 = call i32 (i8*, ...) @printf(i8* getelementptr inbounds ([3 x i8], [3 x i8]* @.str.1, i64 0, i64 0), i32 %151)
  br label %153

153:                                              ; preds = %146
  %154 = load i32, i32* %2, align 4
  %155 = add nsw i32 %154, 1
  store i32 %155, i32* %2, align 4
  br label %142

156:                                              ; preds = %142
  %157 = call i32 (i8*, ...) @printf(i8* getelementptr inbounds ([2 x i8], [2 x i8]* @.str.2, i64 0, i64 0))
  br label %183

158:                                              ; preds = %101
  %159 = load i32, i32* %4, align 4
  %160 = sext i32 %159 to i64
  %161 = getelementptr inbounds [256 x [256 x i8]], [256 x [256 x i8]]* %12, i64 0, i64 %160
  %162 = getelementptr inbounds [256 x i8], [256 x i8]* %161, i64 0, i64 0
  %163 = call i32 (i8*, ...) @printf(i8* getelementptr inbounds ([3 x i8], [3 x i8]* @.str, i64 0, i64 0), i8* %162)
  %164 = load i32, i32* %4, align 4
  %165 = load i32, i32* %7, align 4
  %166 = add nsw i32 %164, %165
  store i32 %166, i32* %2, align 4
  br label %167

167:                                              ; preds = %178, %158
  %168 = load i32, i32* %2, align 4
  %169 = load i32, i32* %5, align 4
  %170 = icmp slt i32 %168, %169
  br i1 %170, label %171, label %181

171:                                              ; preds = %167
  %172 = load i32, i32* %2, align 4
  %173 = sext i32 %172 to i64
  %174 = getelementptr inbounds [256 x i8], [256 x i8]* %9, i64 0, i64 %173
  %175 = load i8, i8* %174, align 1
  %176 = sext i8 %175 to i32
  %177 = call i32 (i8*, ...) @printf(i8* getelementptr inbounds ([3 x i8], [3 x i8]* @.str.1, i64 0, i64 0), i32 %176)
  br label %178

178:                                              ; preds = %171
  %179 = load i32, i32* %2, align 4
  %180 = add nsw i32 %179, 1
  store i32 %180, i32* %2, align 4
  br label %167

181:                                              ; preds = %167
  %182 = call i32 (i8*, ...) @printf(i8* getelementptr inbounds ([2 x i8], [2 x i8]* @.str.2, i64 0, i64 0))
  br label %183

183:                                              ; preds = %181, %156
  br label %184

184:                                              ; preds = %183
  br label %185

185:                                              ; preds = %184, %35
  store i32 0, i32* %1, align 4
  br label %186

186:                                              ; preds = %185, %98
  %187 = load i32, i32* %1, align 4
  ret i32 %187
}

; Function Attrs: argmemonly nounwind willreturn
declare void @llvm.memset.p0i8.i64(i8* nocapture writeonly, i8, i64, i1 immarg) #1

declare dso_local i32 @__isoc99_scanf(i8*, ...) #2

; Function Attrs: nounwind readonly
declare dso_local i64 @strlen(i8*) #3

; Function Attrs: nounwind readonly
declare dso_local i32 @strcmp(i8*, i8*) #3

declare dso_local i32 @printf(i8*, ...) #2

; Function Attrs: nounwind
declare dso_local i8* @strcpy(i8*, i8*) #4


!llvm.module.flags = !{!0}
!llvm.ident = !{!1}

!0 = !{i32 1, !"wchar_size", i32 4}
!1 = !{!"clang version 10.0.0-4ubuntu1 "}
